; Function Attrs: mustprogress nofree nounwind willreturn memory(write, argmem: readwrite) uwtable
define noundef zeroext i8 @_ZN32pxrInternal_v0_24__pxrReserved__24GfConvertLinearToDisplayERKh(ptr noundef nonnull readonly align 1 captures(none) dereferenceable(1) %0) local_unnamed_addr #1 {
  %.val = load i8, ptr %0, align 1
  %2 = uitofp i8 %.val to double
  %3 = fdiv double %2, 2.550000e+02
  %4 = tail call double @pow(double noundef %3, double noundef 0x3FDD1745D1745D17) #8
  %5 = fmul double %4, 2.550000e+02
  %6 = fptoui double %5 to i8
  ret i8 %6
}